GAS LISTING /tmp/ccodnhci.s 			page 1


   1               		.file	"lcd.c"
   2               	__SREG__ = 0x3f
   3               	__SP_H__ = 0x3e
   4               	__SP_L__ = 0x3d
   5               	__CCP__  = 0x34
   6               	__tmp_reg__ = 0
   7               	__zero_reg__ = 1
   8               		.global __do_copy_data
   9               		.global __do_clear_bss
  10               		.text
  11               	.global	strobe_lcd
  12               		.type	strobe_lcd, @function
  13               	strobe_lcd:
  14               	/* prologue: function */
  15               	/* frame size = 0 */
  16 0000 E2E6      		ldi r30,lo8(98)
  17 0002 F0E0      		ldi r31,hi8(98)
  18 0004 8081      		ld r24,Z
  19 0006 8860      		ori r24,lo8(8)
  20 0008 8083      		st Z,r24
  21 000a 8081      		ld r24,Z
  22 000c 877F      		andi r24,lo8(-9)
  23 000e 8083      		st Z,r24
  24               	/* epilogue start */
  25 0010 0895      		ret
  26               		.size	strobe_lcd, .-strobe_lcd
  27               	.global	clear_display
  28               		.type	clear_display, @function
  29               	clear_display:
  30               	/* prologue: function */
  31               	/* frame size = 0 */
  32               	.L4:
  33 0012 779B      		sbis 46-32,7
  34 0014 00C0      		rjmp .L4
  35 0016 1FB8      		out 47-32,__zero_reg__
  36               	.L5:
  37 0018 779B      		sbis 46-32,7
  38 001a 00C0      		rjmp .L5
  39 001c 81E0      		ldi r24,lo8(1)
  40 001e 8FB9      		out 47-32,r24
  41               	.L6:
  42 0020 779B      		sbis 46-32,7
  43 0022 00C0      		rjmp .L6
  44 0024 8091 6200 		lds r24,98
  45 0028 8860      		ori r24,lo8(8)
  46 002a 8093 6200 		sts 98,r24
  47 002e 8091 6200 		lds r24,98
  48 0032 877F      		andi r24,lo8(-9)
  49 0034 8093 6200 		sts 98,r24
  50 0038 80E4      		ldi r24,lo8(8000)
  51 003a 9FE1      		ldi r25,hi8(8000)
  52               	/* #APP */
  53               	 ;  105 "/usr/lib/gcc/avr/4.3.4/../../../avr/include/util/delay_basic.h" 1
  54 003c 0197      		1: sbiw r24,1
  55 003e 01F4      		brne 1b
  56               	 ;  0 "" 2
  57               	/* epilogue start */
GAS LISTING /tmp/ccodnhci.s 			page 2


  58               	/* #NOAPP */
  59 0040 0895      		ret
  60               		.size	clear_display, .-clear_display
  61               	.global	cursor_home
  62               		.type	cursor_home, @function
  63               	cursor_home:
  64               	/* prologue: function */
  65               	/* frame size = 0 */
  66               	.L13:
  67 0042 779B      		sbis 46-32,7
  68 0044 00C0      		rjmp .L13
  69 0046 1FB8      		out 47-32,__zero_reg__
  70               	.L14:
  71 0048 779B      		sbis 46-32,7
  72 004a 00C0      		rjmp .L14
  73 004c 82E0      		ldi r24,lo8(2)
  74 004e 8FB9      		out 47-32,r24
  75               	.L15:
  76 0050 779B      		sbis 46-32,7
  77 0052 00C0      		rjmp .L15
  78 0054 8091 6200 		lds r24,98
  79 0058 8860      		ori r24,lo8(8)
  80 005a 8093 6200 		sts 98,r24
  81 005e 8091 6200 		lds r24,98
  82 0062 877F      		andi r24,lo8(-9)
  83 0064 8093 6200 		sts 98,r24
  84 0068 80E4      		ldi r24,lo8(8000)
  85 006a 9FE1      		ldi r25,hi8(8000)
  86               	/* #APP */
  87               	 ;  105 "/usr/lib/gcc/avr/4.3.4/../../../avr/include/util/delay_basic.h" 1
  88 006c 0197      		1: sbiw r24,1
  89 006e 01F4      		brne 1b
  90               	 ;  0 "" 2
  91               	/* epilogue start */
  92               	/* #NOAPP */
  93 0070 0895      		ret
  94               		.size	cursor_home, .-cursor_home
  95               	.global	home_line2
  96               		.type	home_line2, @function
  97               	home_line2:
  98               	/* prologue: function */
  99               	/* frame size = 0 */
 100               	.L21:
 101 0072 779B      		sbis 46-32,7
 102 0074 00C0      		rjmp .L21
 103 0076 1FB8      		out 47-32,__zero_reg__
 104               	.L22:
 105 0078 779B      		sbis 46-32,7
 106 007a 00C0      		rjmp .L22
 107 007c 80EC      		ldi r24,lo8(-64)
 108 007e 8FB9      		out 47-32,r24
 109               	.L23:
 110 0080 779B      		sbis 46-32,7
 111 0082 00C0      		rjmp .L23
 112 0084 8091 6200 		lds r24,98
 113 0088 8860      		ori r24,lo8(8)
 114 008a 8093 6200 		sts 98,r24
GAS LISTING /tmp/ccodnhci.s 			page 3


 115 008e 8091 6200 		lds r24,98
 116 0092 877F      		andi r24,lo8(-9)
 117 0094 8093 6200 		sts 98,r24
 118 0098 80E4      		ldi r24,lo8(8000)
 119 009a 9FE1      		ldi r25,hi8(8000)
 120               	/* #APP */
 121               	 ;  105 "/usr/lib/gcc/avr/4.3.4/../../../avr/include/util/delay_basic.h" 1
 122 009c 0197      		1: sbiw r24,1
 123 009e 01F4      		brne 1b
 124               	 ;  0 "" 2
 125               	/* epilogue start */
 126               	/* #NOAPP */
 127 00a0 0895      		ret
 128               		.size	home_line2, .-home_line2
 129               	.global	fill_spaces
 130               		.type	fill_spaces, @function
 131               	fill_spaces:
 132               	/* prologue: function */
 133               	/* frame size = 0 */
 134               	.L29:
 135 00a2 779B      		sbis 46-32,7
 136 00a4 00C0      		rjmp .L29
 137 00a6 20E0      		ldi r18,lo8(0)
 138 00a8 61E0      		ldi r22,lo8(1)
 139 00aa 30E2      		ldi r19,lo8(32)
 140 00ac 40E9      		ldi r20,lo8(400)
 141 00ae 51E0      		ldi r21,hi8(400)
 142               	.L32:
 143 00b0 6FB9      		out 47-32,r22
 144               	.L30:
 145 00b2 779B      		sbis 46-32,7
 146 00b4 00C0      		rjmp .L30
 147 00b6 3FB9      		out 47-32,r19
 148               	.L31:
 149 00b8 779B      		sbis 46-32,7
 150 00ba 00C0      		rjmp .L31
 151 00bc 8091 6200 		lds r24,98
 152 00c0 8860      		ori r24,lo8(8)
 153 00c2 8093 6200 		sts 98,r24
 154 00c6 8091 6200 		lds r24,98
 155 00ca 877F      		andi r24,lo8(-9)
 156 00cc 8093 6200 		sts 98,r24
 157 00d0 CA01      		movw r24,r20
 158               	/* #APP */
 159               	 ;  105 "/usr/lib/gcc/avr/4.3.4/../../../avr/include/util/delay_basic.h" 1
 160 00d2 0197      		1: sbiw r24,1
 161 00d4 01F4      		brne 1b
 162               	 ;  0 "" 2
 163               	/* #NOAPP */
 164 00d6 2F5F      		subi r18,lo8(-(1))
 165 00d8 2031      		cpi r18,lo8(16)
 166 00da 01F4      		brne .L32
 167               	/* epilogue start */
 168 00dc 0895      		ret
 169               		.size	fill_spaces, .-fill_spaces
 170               	.global	char2lcd
 171               		.type	char2lcd, @function
GAS LISTING /tmp/ccodnhci.s 			page 4


 172               	char2lcd:
 173               	/* prologue: function */
 174               	/* frame size = 0 */
 175 00de 982F      		mov r25,r24
 176               	.L39:
 177 00e0 779B      		sbis 46-32,7
 178 00e2 00C0      		rjmp .L39
 179 00e4 81E0      		ldi r24,lo8(1)
 180 00e6 8FB9      		out 47-32,r24
 181               	.L40:
 182 00e8 779B      		sbis 46-32,7
 183 00ea 00C0      		rjmp .L40
 184 00ec 9FB9      		out 47-32,r25
 185               	.L41:
 186 00ee 779B      		sbis 46-32,7
 187 00f0 00C0      		rjmp .L41
 188 00f2 8091 6200 		lds r24,98
 189 00f6 8860      		ori r24,lo8(8)
 190 00f8 8093 6200 		sts 98,r24
 191 00fc 8091 6200 		lds r24,98
 192 0100 877F      		andi r24,lo8(-9)
 193 0102 8093 6200 		sts 98,r24
 194 0106 80E9      		ldi r24,lo8(400)
 195 0108 91E0      		ldi r25,hi8(400)
 196               	/* #APP */
 197               	 ;  105 "/usr/lib/gcc/avr/4.3.4/../../../avr/include/util/delay_basic.h" 1
 198 010a 0197      		1: sbiw r24,1
 199 010c 01F4      		brne 1b
 200               	 ;  0 "" 2
 201               	/* epilogue start */
 202               	/* #NOAPP */
 203 010e 0895      		ret
 204               		.size	char2lcd, .-char2lcd
 205               	.global	lcd_init
 206               		.type	lcd_init, @function
 207               	lcd_init:
 208               	/* prologue: function */
 209               	/* frame size = 0 */
 210 0110 80E6      		ldi r24,lo8(-5536)
 211 0112 9AEE      		ldi r25,hi8(-5536)
 212               	/* #APP */
 213               	 ;  105 "/usr/lib/gcc/avr/4.3.4/../../../avr/include/util/delay_basic.h" 1
 214 0114 0197      		1: sbiw r24,1
 215 0116 01F4      		brne 1b
 216               	 ;  0 "" 2
 217               	/* #NOAPP */
 218 0118 20E0      		ldi r18,lo8(0)
 219 011a 30E3      		ldi r19,lo8(48)
 220 011c 40E6      		ldi r20,lo8(28000)
 221 011e 5DE6      		ldi r21,hi8(28000)
 222               	.L49:
 223 0120 1FB8      		out 47-32,__zero_reg__
 224               	.L47:
 225 0122 779B      		sbis 46-32,7
 226 0124 00C0      		rjmp .L47
 227 0126 3FB9      		out 47-32,r19
 228               	.L48:
GAS LISTING /tmp/ccodnhci.s 			page 5


 229 0128 779B      		sbis 46-32,7
 230 012a 00C0      		rjmp .L48
 231 012c 8091 6200 		lds r24,98
 232 0130 8860      		ori r24,lo8(8)
 233 0132 8093 6200 		sts 98,r24
 234 0136 8091 6200 		lds r24,98
 235 013a 877F      		andi r24,lo8(-9)
 236 013c 8093 6200 		sts 98,r24
 237 0140 CA01      		movw r24,r20
 238               	/* #APP */
 239               	 ;  105 "/usr/lib/gcc/avr/4.3.4/../../../avr/include/util/delay_basic.h" 1
 240 0142 0197      		1: sbiw r24,1
 241 0144 01F4      		brne 1b
 242               	 ;  0 "" 2
 243               	/* #NOAPP */
 244 0146 2F5F      		subi r18,lo8(-(1))
 245 0148 2330      		cpi r18,lo8(3)
 246 014a 01F4      		brne .L49
 247 014c 1FB8      		out 47-32,__zero_reg__
 248               	.L50:
 249 014e 779B      		sbis 46-32,7
 250 0150 00C0      		rjmp .L50
 251 0152 88E3      		ldi r24,lo8(56)
 252 0154 8FB9      		out 47-32,r24
 253               	.L51:
 254 0156 779B      		sbis 46-32,7
 255 0158 00C0      		rjmp .L51
 256 015a 8091 6200 		lds r24,98
 257 015e 8860      		ori r24,lo8(8)
 258 0160 8093 6200 		sts 98,r24
 259 0164 8091 6200 		lds r24,98
 260 0168 877F      		andi r24,lo8(-9)
 261 016a 8093 6200 		sts 98,r24
 262 016e 80E2      		ldi r24,lo8(20000)
 263 0170 9EE4      		ldi r25,hi8(20000)
 264               	/* #APP */
 265               	 ;  105 "/usr/lib/gcc/avr/4.3.4/../../../avr/include/util/delay_basic.h" 1
 266 0172 0197      		1: sbiw r24,1
 267 0174 01F4      		brne 1b
 268               	 ;  0 "" 2
 269               	/* #NOAPP */
 270 0176 1FB8      		out 47-32,__zero_reg__
 271               	.L52:
 272 0178 779B      		sbis 46-32,7
 273 017a 00C0      		rjmp .L52
 274 017c 88E0      		ldi r24,lo8(8)
 275 017e 8FB9      		out 47-32,r24
 276               	.L53:
 277 0180 779B      		sbis 46-32,7
 278 0182 00C0      		rjmp .L53
 279 0184 8091 6200 		lds r24,98
 280 0188 8860      		ori r24,lo8(8)
 281 018a 8093 6200 		sts 98,r24
 282 018e 8091 6200 		lds r24,98
 283 0192 877F      		andi r24,lo8(-9)
 284 0194 8093 6200 		sts 98,r24
 285 0198 80E2      		ldi r24,lo8(20000)
GAS LISTING /tmp/ccodnhci.s 			page 6


 286 019a 9EE4      		ldi r25,hi8(20000)
 287               	/* #APP */
 288               	 ;  105 "/usr/lib/gcc/avr/4.3.4/../../../avr/include/util/delay_basic.h" 1
 289 019c 0197      		1: sbiw r24,1
 290 019e 01F4      		brne 1b
 291               	 ;  0 "" 2
 292               	/* #NOAPP */
 293 01a0 1FB8      		out 47-32,__zero_reg__
 294               	.L54:
 295 01a2 779B      		sbis 46-32,7
 296 01a4 00C0      		rjmp .L54
 297 01a6 81E0      		ldi r24,lo8(1)
 298 01a8 8FB9      		out 47-32,r24
 299               	.L55:
 300 01aa 779B      		sbis 46-32,7
 301 01ac 00C0      		rjmp .L55
 302 01ae 8091 6200 		lds r24,98
 303 01b2 8860      		ori r24,lo8(8)
 304 01b4 8093 6200 		sts 98,r24
 305 01b8 8091 6200 		lds r24,98
 306 01bc 877F      		andi r24,lo8(-9)
 307 01be 8093 6200 		sts 98,r24
 308 01c2 80E2      		ldi r24,lo8(20000)
 309 01c4 9EE4      		ldi r25,hi8(20000)
 310               	/* #APP */
 311               	 ;  105 "/usr/lib/gcc/avr/4.3.4/../../../avr/include/util/delay_basic.h" 1
 312 01c6 0197      		1: sbiw r24,1
 313 01c8 01F4      		brne 1b
 314               	 ;  0 "" 2
 315               	/* #NOAPP */
 316 01ca 1FB8      		out 47-32,__zero_reg__
 317               	.L56:
 318 01cc 779B      		sbis 46-32,7
 319 01ce 00C0      		rjmp .L56
 320 01d0 86E0      		ldi r24,lo8(6)
 321 01d2 8FB9      		out 47-32,r24
 322               	.L57:
 323 01d4 779B      		sbis 46-32,7
 324 01d6 00C0      		rjmp .L57
 325 01d8 8091 6200 		lds r24,98
 326 01dc 8860      		ori r24,lo8(8)
 327 01de 8093 6200 		sts 98,r24
 328 01e2 8091 6200 		lds r24,98
 329 01e6 877F      		andi r24,lo8(-9)
 330 01e8 8093 6200 		sts 98,r24
 331 01ec 80E2      		ldi r24,lo8(20000)
 332 01ee 9EE4      		ldi r25,hi8(20000)
 333               	/* #APP */
 334               	 ;  105 "/usr/lib/gcc/avr/4.3.4/../../../avr/include/util/delay_basic.h" 1
 335 01f0 0197      		1: sbiw r24,1
 336 01f2 01F4      		brne 1b
 337               	 ;  0 "" 2
 338               	/* #NOAPP */
 339 01f4 1FB8      		out 47-32,__zero_reg__
 340               	.L58:
 341 01f6 779B      		sbis 46-32,7
 342 01f8 00C0      		rjmp .L58
GAS LISTING /tmp/ccodnhci.s 			page 7


 343 01fa 8CE0      		ldi r24,lo8(12)
 344 01fc 8FB9      		out 47-32,r24
 345               	.L59:
 346 01fe 779B      		sbis 46-32,7
 347 0200 00C0      		rjmp .L59
 348 0202 8091 6200 		lds r24,98
 349 0206 8860      		ori r24,lo8(8)
 350 0208 8093 6200 		sts 98,r24
 351 020c 8091 6200 		lds r24,98
 352 0210 877F      		andi r24,lo8(-9)
 353 0212 8093 6200 		sts 98,r24
 354 0216 80E2      		ldi r24,lo8(20000)
 355 0218 9EE4      		ldi r25,hi8(20000)
 356               	/* #APP */
 357               	 ;  105 "/usr/lib/gcc/avr/4.3.4/../../../avr/include/util/delay_basic.h" 1
 358 021a 0197      		1: sbiw r24,1
 359 021c 01F4      		brne 1b
 360               	 ;  0 "" 2
 361               	/* epilogue start */
 362               	/* #NOAPP */
 363 021e 0895      		ret
 364               		.size	lcd_init, .-lcd_init
 365               	.global	string2lcd
 366               		.type	string2lcd, @function
 367               	string2lcd:
 368               	/* prologue: function */
 369               	/* frame size = 0 */
 370 0220 AC01      		movw r20,r24
 371               	.L75:
 372 0222 779B      		sbis 46-32,7
 373 0224 00C0      		rjmp .L75
 374 0226 DA01      		movw r26,r20
 375 0228 0D90      		ld __tmp_reg__,X+
 376 022a 0020      		tst __tmp_reg__
 377 022c 01F4      		brne .-6
 378 022e A41B      		sub r26,r20
 379 0230 B50B      		sbc r27,r21
 380 0232 1297      		sbiw r26,2
 381 0234 20E0      		ldi r18,lo8(0)
 382 0236 E0E0      		ldi r30,lo8(0)
 383 0238 F0E0      		ldi r31,hi8(0)
 384 023a 91E0      		ldi r25,lo8(1)
 385 023c 60E9      		ldi r22,lo8(400)
 386 023e 71E0      		ldi r23,hi8(400)
 387               	.L79:
 388 0240 9FB9      		out 47-32,r25
 389               	.L77:
 390 0242 779B      		sbis 46-32,7
 391 0244 00C0      		rjmp .L77
 392 0246 E40F      		add r30,r20
 393 0248 F51F      		adc r31,r21
 394 024a 8081      		ld r24,Z
 395 024c 8FB9      		out 47-32,r24
 396               	.L78:
 397 024e 779B      		sbis 46-32,7
 398 0250 00C0      		rjmp .L78
 399 0252 8091 6200 		lds r24,98
GAS LISTING /tmp/ccodnhci.s 			page 8


 400 0256 8860      		ori r24,lo8(8)
 401 0258 8093 6200 		sts 98,r24
 402 025c 8091 6200 		lds r24,98
 403 0260 877F      		andi r24,lo8(-9)
 404 0262 8093 6200 		sts 98,r24
 405 0266 FB01      		movw r30,r22
 406               	/* #APP */
 407               	 ;  105 "/usr/lib/gcc/avr/4.3.4/../../../avr/include/util/delay_basic.h" 1
 408 0268 3197      		1: sbiw r30,1
 409 026a 01F4      		brne 1b
 410               	 ;  0 "" 2
 411               	/* #NOAPP */
 412 026c 2F5F      		subi r18,lo8(-(1))
 413 026e E22F      		mov r30,r18
 414 0270 F0E0      		ldi r31,lo8(0)
 415 0272 AE17      		cp r26,r30
 416 0274 BF07      		cpc r27,r31
 417 0276 00F4      		brsh .L79
 418 0278 0895      		ret
 419               		.size	string2lcd, .-string2lcd
GAS LISTING /tmp/ccodnhci.s 			page 9


DEFINED SYMBOLS
                            *ABS*:00000000 lcd.c
     /tmp/ccodnhci.s:2      *ABS*:0000003f __SREG__
     /tmp/ccodnhci.s:3      *ABS*:0000003e __SP_H__
     /tmp/ccodnhci.s:4      *ABS*:0000003d __SP_L__
     /tmp/ccodnhci.s:5      *ABS*:00000034 __CCP__
     /tmp/ccodnhci.s:6      *ABS*:00000000 __tmp_reg__
     /tmp/ccodnhci.s:7      *ABS*:00000001 __zero_reg__
     /tmp/ccodnhci.s:13     .text:00000000 strobe_lcd
     /tmp/ccodnhci.s:29     .text:00000012 clear_display
     /tmp/ccodnhci.s:63     .text:00000042 cursor_home
     /tmp/ccodnhci.s:97     .text:00000072 home_line2
     /tmp/ccodnhci.s:131    .text:000000a2 fill_spaces
     /tmp/ccodnhci.s:172    .text:000000de char2lcd
     /tmp/ccodnhci.s:207    .text:00000110 lcd_init
     /tmp/ccodnhci.s:367    .text:00000220 string2lcd

UNDEFINED SYMBOLS
__do_copy_data
__do_clear_bss
